
flash_header.module:     file format elf32-littlearm


Disassembly of section .text.flasheader:

00000000 <ivt_header-0x400>:
   0:	feffffea 	cdp2	15, 15, cr15, cr15, cr10, {7}
	...

00000400 <ivt_header>:
 400:	d1002040 	.word	0xd1002040

00000404 <app_code_jump_v>:
 404:	00000000 	.word	0x00000000

00000408 <reserv1>:
 408:	00000000 	.word	0x00000000

0000040c <dcd_ptr>:
 40c:	2c040000 	.word	0x2c040000

00000410 <boot_data_ptr>:
 410:	20040000 	.word	0x20040000

00000414 <self_ptr>:
 414:	00040000 	.word	0x00040000

00000418 <app_code_csf>:
 418:	00000000 	.word	0x00000000

0000041c <reserv2>:
 41c:	00000000 	.word	0x00000000

00000420 <boot_data>:
 420:	00008027 	.word	0x00008027

00000424 <image_len>:
 424:	000480d8 	.word	0x000480d8

00000428 <plugin>:
 428:	00000000 	.word	0x00000000

0000042c <dcd_hdr>:
 42c:	d202a040 	.word	0xd202a040

00000430 <write_dcd_cmd>:
 430:	cc029c04 	.word	0xcc029c04

00000434 <dcd_node_1>:
 434:	020e0798 	.word	0x020e0798
 438:	000c0000 	.word	0x000c0000

0000043c <dcd_node_2>:
 43c:	020e0758 	.word	0x020e0758
 440:	00000000 	.word	0x00000000

00000444 <dcd_node_3>:
 444:	020e0588 	.word	0x020e0588
 448:	00000030 	.word	0x00000030

0000044c <dcd_node_4>:
 44c:	020e0594 	.word	0x020e0594
 450:	00000030 	.word	0x00000030

00000454 <dcd_node_5>:
 454:	020e056c 	.word	0x020e056c
 458:	00000030 	.word	0x00000030

0000045c <dcd_node_6>:
 45c:	020e0578 	.word	0x020e0578
 460:	00000030 	.word	0x00000030

00000464 <dcd_node_7>:
 464:	020e074c 	.word	0x020e074c
 468:	00000030 	.word	0x00000030

0000046c <dcd_node_8>:
 46c:	020e057c 	.word	0x020e057c
 470:	00000030 	.word	0x00000030

00000474 <dcd_node_9>:
 474:	020e058c 	.word	0x020e058c
 478:	00000000 	.word	0x00000000

0000047c <dcd_node_10>:
 47c:	020e059c 	.word	0x020e059c
 480:	00000030 	.word	0x00000030

00000484 <dcd_node_11>:
 484:	020e05a0 	.word	0x020e05a0
 488:	00000030 	.word	0x00000030

0000048c <dcd_node_12>:
 48c:	020e078c 	.word	0x020e078c
 490:	00000030 	.word	0x00000030

00000494 <dcd_node_13>:
 494:	020e0750 	.word	0x020e0750
 498:	00020000 	.word	0x00020000

0000049c <dcd_node_14>:
 49c:	020e05a8 	.word	0x020e05a8
 4a0:	00000018 	.word	0x00000018

000004a4 <dcd_node_15>:
 4a4:	020e05b0 	.word	0x020e05b0
 4a8:	00000018 	.word	0x00000018

000004ac <dcd_node_16>:
 4ac:	020e0524 	.word	0x020e0524
 4b0:	00000018 	.word	0x00000018

000004b4 <dcd_node_17>:
 4b4:	020e051c 	.word	0x020e051c
 4b8:	00000018 	.word	0x00000018

000004bc <dcd_node_18>:
 4bc:	020e0518 	.word	0x020e0518
 4c0:	00000018 	.word	0x00000018

000004c4 <dcd_node_19>:
 4c4:	020e050c 	.word	0x020e050c
 4c8:	00000018 	.word	0x00000018

000004cc <dcd_node_20>:
 4cc:	020e05b8 	.word	0x020e05b8
 4d0:	00000018 	.word	0x00000018

000004d4 <dcd_node_21>:
 4d4:	020e05c0 	.word	0x020e05c0
 4d8:	00000018 	.word	0x00000018

000004dc <dcd_node_22>:
 4dc:	020e0774 	.word	0x020e0774
 4e0:	00020000 	.word	0x00020000

000004e4 <dcd_node_23>:
 4e4:	020e0784 	.word	0x020e0784
 4e8:	00000018 	.word	0x00000018

000004ec <dcd_node_24>:
 4ec:	020e0788 	.word	0x020e0788
 4f0:	00000018 	.word	0x00000018

000004f4 <dcd_node_25>:
 4f4:	020e0794 	.word	0x020e0794
 4f8:	00000018 	.word	0x00000018

000004fc <dcd_node_26>:
 4fc:	020e079c 	.word	0x020e079c
 500:	00000018 	.word	0x00000018

00000504 <dcd_node_27>:
 504:	020e07a0 	.word	0x020e07a0
 508:	00000018 	.word	0x00000018

0000050c <dcd_node_28>:
 50c:	020e07a4 	.word	0x020e07a4
 510:	00000018 	.word	0x00000018

00000514 <dcd_node_29>:
 514:	020e07a8 	.word	0x020e07a8
 518:	00000018 	.word	0x00000018

0000051c <dcd_node_30>:
 51c:	020e0748 	.word	0x020e0748
 520:	00000018 	.word	0x00000018

00000524 <dcd_node_31>:
 524:	020e05ac 	.word	0x020e05ac
 528:	00000018 	.word	0x00000018

0000052c <dcd_node_32>:
 52c:	020e05b4 	.word	0x020e05b4
 530:	00000018 	.word	0x00000018

00000534 <dcd_node_33>:
 534:	020e0528 	.word	0x020e0528
 538:	00000018 	.word	0x00000018

0000053c <dcd_node_34>:
 53c:	020e0520 	.word	0x020e0520
 540:	00000018 	.word	0x00000018

00000544 <dcd_node_35>:
 544:	020e0514 	.word	0x020e0514
 548:	00000018 	.word	0x00000018

0000054c <dcd_node_36>:
 54c:	020e0510 	.word	0x020e0510
 550:	00000018 	.word	0x00000018

00000554 <dcd_node_37>:
 554:	020e05bc 	.word	0x020e05bc
 558:	00000018 	.word	0x00000018

0000055c <dcd_node_38>:
 55c:	020e05c4 	.word	0x020e05c4
 560:	00000018 	.word	0x00000018

00000564 <dcd_node_39>:
 564:	021b0800 	.word	0x021b0800
 568:	a1390003 	.word	0xa1390003

0000056c <dcd_node_40>:
 56c:	021b080c 	.word	0x021b080c
 570:	001f001f 	.word	0x001f001f

00000574 <dcd_node_41>:
 574:	021b0810 	.word	0x021b0810
 578:	001f001f 	.word	0x001f001f

0000057c <dcd_node_42>:
 57c:	021b480c 	.word	0x021b480c
 580:	001f001f 	.word	0x001f001f

00000584 <dcd_node_43>:
 584:	021b4810 	.word	0x021b4810
 588:	001f001f 	.word	0x001f001f

0000058c <dcd_node_44>:
 58c:	021b083c 	.word	0x021b083c
 590:	4333033f 	.word	0x4333033f

00000594 <dcd_node_45>:
 594:	021b0840 	.word	0x021b0840
 598:	032c031d 	.word	0x032c031d

0000059c <dcd_node_46>:
 59c:	021b483c 	.word	0x021b483c
 5a0:	43200332 	.word	0x43200332

000005a4 <dcd_node_47>:
 5a4:	021b4840 	.word	0x021b4840
 5a8:	031a026a 	.word	0x031a026a

000005ac <dcd_node_48>:
 5ac:	021b0848 	.word	0x021b0848
 5b0:	4d464746 	.word	0x4d464746

000005b4 <dcd_node_49>:
 5b4:	021b4848 	.word	0x021b4848
 5b8:	47453f4d 	.word	0x47453f4d

000005bc <dcd_node_50>:
 5bc:	021b0850 	.word	0x021b0850
 5c0:	3e434440 	.word	0x3e434440

000005c4 <dcd_node_51>:
 5c4:	021b4850 	.word	0x021b4850
 5c8:	47384839 	.word	0x47384839

000005cc <dcd_node_52>:
 5cc:	021b081c 	.word	0x021b081c
 5d0:	33333333 	.word	0x33333333

000005d4 <dcd_node_53>:
 5d4:	021b0820 	.word	0x021b0820
 5d8:	33333333 	.word	0x33333333

000005dc <dcd_node_54>:
 5dc:	021b0824 	.word	0x021b0824
 5e0:	33333333 	.word	0x33333333

000005e4 <dcd_node_55>:
 5e4:	021b0828 	.word	0x021b0828
 5e8:	33333333 	.word	0x33333333

000005ec <dcd_node_56>:
 5ec:	021b481c 	.word	0x021b481c
 5f0:	33333333 	.word	0x33333333

000005f4 <dcd_node_57>:
 5f4:	021b4820 	.word	0x021b4820
 5f8:	33333333 	.word	0x33333333

000005fc <dcd_node_58>:
 5fc:	021b4824 	.word	0x021b4824
 600:	33333333 	.word	0x33333333

00000604 <dcd_node_59>:
 604:	021b4828 	.word	0x021b4828
 608:	33333333 	.word	0x33333333

0000060c <dcd_node_60>:
 60c:	021b08b8 	.word	0x021b08b8
 610:	00000800 	.word	0x00000800

00000614 <dcd_node_61>:
 614:	021b48b8 	.word	0x021b48b8
 618:	00000800 	.word	0x00000800

0000061c <dcd_node_62>:
 61c:	021b0004 	.word	0x021b0004
 620:	00020036 	.word	0x00020036

00000624 <dcd_node_63>:
 624:	021b0008 	.word	0x021b0008
 628:	09444040 	.word	0x09444040

0000062c <dcd_node_64>:
 62c:	021b000c 	.word	0x021b000c
 630:	8a8f7955 	.word	0x8a8f7955

00000634 <dcd_node_65>:
 634:	021b0010 	.word	0x021b0010
 638:	ff328f64 	.word	0xff328f64

0000063c <dcd_node_66>:
 63c:	021b0014 	.word	0x021b0014
 640:	01ff00db 	.word	0x01ff00db

00000644 <dcd_node_67>:
 644:	021b0018 	.word	0x021b0018
 648:	00001740 	.word	0x00001740

0000064c <dcd_node_68>:
 64c:	021b001c 	.word	0x021b001c
 650:	00008000 	.word	0x00008000

00000654 <dcd_node_69>:
 654:	021b002c 	.word	0x021b002c
 658:	000026d2 	.word	0x000026d2

0000065c <dcd_node_70>:
 65c:	021b0030 	.word	0x021b0030
 660:	008f1023 	.word	0x008f1023

00000664 <dcd_node_71>:
 664:	021b0040 	.word	0x021b0040
 668:	00000047 	.word	0x00000047

0000066c <dcd_node_72>:
 66c:	021b0000 	.word	0x021b0000
 670:	841a0000 	.word	0x841a0000

00000674 <dcd_node_73>:
 674:	021b001c 	.word	0x021b001c
 678:	04088032 	.word	0x04088032

0000067c <dcd_node_74>:
 67c:	021b001c 	.word	0x021b001c
 680:	00008033 	.word	0x00008033

00000684 <dcd_node_75>:
 684:	021b001c 	.word	0x021b001c
 688:	00048031 	.word	0x00048031

0000068c <dcd_node_76>:
 68c:	021b001c 	.word	0x021b001c
 690:	09408030 	.word	0x09408030

00000694 <dcd_node_77>:
 694:	021b001c 	.word	0x021b001c
 698:	04008040 	.word	0x04008040

0000069c <dcd_node_78>:
 69c:	021b0020 	.word	0x021b0020
 6a0:	00005800 	.word	0x00005800

000006a4 <dcd_node_79>:
 6a4:	021b0818 	.word	0x021b0818
 6a8:	00011117 	.word	0x00011117

000006ac <dcd_node_80>:
 6ac:	021b4818 	.word	0x021b4818
 6b0:	00011117 	.word	0x00011117

000006b4 <dcd_node_81>:
 6b4:	021b0004 	.word	0x021b0004
 6b8:	00025576 	.word	0x00025576

000006bc <dcd_node_82>:
 6bc:	021b0404 	.word	0x021b0404
 6c0:	00011006 	.word	0x00011006

000006c4 <dcd_node_83>:
 6c4:	021b001c 	.word	0x021b001c
 6c8:	00000000 	.word	0x00000000
